target datalayout = "e-m:e-p270:32:32-p271:32:32-p272:64:64-i64:64-i128:128-f80:128-n8:16:32:64-S128"
target triple = "x86_64-pc-linux-gnu"

@.str.4 = private unnamed_addr constant [34 x i8] c"../openssl/test/threadpool_test.c\00", align 1
@.str.5 = private unnamed_addr constant [45 x i8] c"flags & OSSL_THREAD_SUPPORT_FLAG_THREAD_POOL\00", align 1
@.str.6 = private unnamed_addr constant [37 x i8] c"OSSL_THREAD_SUPPORT_FLAG_THREAD_POOL\00", align 1
@.str.7 = private unnamed_addr constant [47 x i8] c"flags & OSSL_THREAD_SUPPORT_FLAG_DEFAULT_SPAWN\00", align 1
@.str.8 = private unnamed_addr constant [39 x i8] c"OSSL_THREAD_SUPPORT_FLAG_DEFAULT_SPAWN\00", align 1

; Function Attrs: nounwind uwtable
define internal i32 @test_thread_reported_flags() #0 {
  %1 = alloca i32, align 4
  %2 = alloca i32, align 4
  %3 = alloca i32, align 4
  call void @llvm.lifetime.start.p0(i64 4, ptr %2) #4
  %4 = call i32 @OSSL_get_thread_support_flags()
  store i32 %4, ptr %2, align 4, !tbaa !4
  %5 = load i32, ptr %2, align 4, !tbaa !4
  %6 = and i32 %5, 1
  %7 = call i32 @test_int_eq(ptr noundef @.str.4, i32 noundef 31, ptr noundef @.str.5, ptr noundef @.str.6, i32 noundef %6, i32 noundef 1)
  %8 = icmp ne i32 %7, 0
  br i1 %8, label %10, label %9

9:                                                ; preds = %0
  store i32 0, ptr %1, align 4
  store i32 1, ptr %3, align 4
  br label %17

10:                                               ; preds = %0
  %11 = load i32, ptr %2, align 4, !tbaa !4
  %12 = and i32 %11, 2
  %13 = call i32 @test_int_eq(ptr noundef @.str.4, i32 noundef 40, ptr noundef @.str.7, ptr noundef @.str.8, i32 noundef %12, i32 noundef 2)
  %14 = icmp ne i32 %13, 0
  br i1 %14, label %16, label %15

15:                                               ; preds = %10
  store i32 0, ptr %1, align 4
  store i32 1, ptr %3, align 4
  br label %17

16:                                               ; preds = %10
  store i32 1, ptr %1, align 4
  store i32 1, ptr %3, align 4
  br label %17

17:                                               ; preds = %16, %15, %9
  call void @llvm.lifetime.end.p0(i64 4, ptr %2) #4
  %18 = load i32, ptr %1, align 4
  ret i32 %18
}