; Function Attrs: nounwind uwtable
define internal range(i32 0, 2) i32 @test_thread_reported_flags() #0 {
  %1 = tail call i32 @OSSL_get_thread_support_flags() #6
  %2 = and i32 %1, 1
  %3 = tail call i32 @test_int_eq(ptr noundef nonnull @.str.4, i32 noundef 31, ptr noundef nonnull @.str.5, ptr noundef nonnull @.str.6, i32 noundef %2, i32 noundef 1) #6
  %.not = icmp eq i32 %3, 0
  br i1 %.not, label %7, label %4

4:                                                ; preds = %0
  %5 = and i32 %1, 2
  %6 = tail call i32 @test_int_eq(ptr noundef nonnull @.str.4, i32 noundef 40, ptr noundef nonnull @.str.7, ptr noundef nonnull @.str.8, i32 noundef %5, i32 noundef 2) #6
  %.not3 = icmp ne i32 %6, 0
  %. = zext i1 %.not3 to i32
  br label %7

7:                                                ; preds = %4, %0
  %.0 = phi i32 [ 0, %0 ], [ %., %4 ]
  ret i32 %.0
}